target datalayout = "e-m:e-p270:32:32-p271:32:32-p272:64:64-i64:64-i128:128-f80:128-n8:16:32:64-S128"
target triple = "x86_64-pc-linux-gnu"

%"class.std::vector" = type { %"struct.std::_Vector_base" }
%"struct.std::_Vector_base" = type { %"struct.std::_Vector_base<const Variable *, std::allocator<const Variable *>>::_Vector_impl" }
%"struct.std::_Vector_base<const Variable *, std::allocator<const Variable *>>::_Vector_impl" = type { %"struct.std::_Vector_base<const Variable *, std::allocator<const Variable *>>::_Vector_impl_data" }
%"struct.std::_Vector_base<const Variable *, std::allocator<const Variable *>>::_Vector_impl_data" = type { ptr, ptr, ptr }
%class.CGContext = type { ptr, i32, i32, i32, %"class.std::vector.0", ptr, ptr, %"class.std::map", ptr, ptr, ptr, %class.Effect }
%"class.std::vector.0" = type { %"struct.std::_Vector_base.1" }
%"struct.std::_Vector_base.1" = type { %"struct.std::_Vector_base<const Block *, std::allocator<const Block *>>::_Vector_impl" }
%"struct.std::_Vector_base<const Block *, std::allocator<const Block *>>::_Vector_impl" = type { %"struct.std::_Vector_base<const Block *, std::allocator<const Block *>>::_Vector_impl_data" }
%"struct.std::_Vector_base<const Block *, std::allocator<const Block *>>::_Vector_impl_data" = type { ptr, ptr, ptr }
%"class.std::map" = type { %"class.std::_Rb_tree" }
%"class.std::_Rb_tree" = type { %"struct.std::_Rb_tree<const Variable *, std::pair<const Variable *const, unsigned int>, std::_Select1st<std::pair<const Variable *const, unsigned int>>, std::less<const Variable *>>::_Rb_tree_impl" }
%"struct.std::_Rb_tree<const Variable *, std::pair<const Variable *const, unsigned int>, std::_Select1st<std::pair<const Variable *const, unsigned int>>, std::less<const Variable *>>::_Rb_tree_impl" = type { %"struct.std::_Rb_tree_key_compare", %"struct.std::_Rb_tree_header" }
%"struct.std::_Rb_tree_key_compare" = type { %"struct.std::less" }
%"struct.std::less" = type { i8 }
%"struct.std::_Rb_tree_header" = type { %"struct.std::_Rb_tree_node_base", i64 }
%"struct.std::_Rb_tree_node_base" = type { i32, ptr, ptr, ptr }
%class.Effect = type <{ %"class.std::vector", %"class.std::vector", %"class.std::vector", i8, i8, [6 x i8] }>
%"class.std::vector.25" = type { %"struct.std::_Vector_base.26" }
%"struct.std::_Vector_base.26" = type { %"struct.std::_Vector_base<int, std::allocator<int>>::_Vector_impl" }
%"struct.std::_Vector_base<int, std::allocator<int>>::_Vector_impl" = type { %"struct.std::_Vector_base<int, std::allocator<int>>::_Vector_impl_data" }
%"struct.std::_Vector_base<int, std::allocator<int>>::_Vector_impl_data" = type { ptr, ptr, ptr }
%class.Variable = type { ptr, %"class.std::vector.8", %"class.std::__cxx11::basic_string", ptr, ptr, i8, i8, i8, i8, i8, i8, ptr, i8, %class.CVQualifiers }
%"class.std::vector.8" = type { %"struct.std::_Vector_base.9" }
%"struct.std::_Vector_base.9" = type { %"struct.std::_Vector_base<Variable *, std::allocator<Variable *>>::_Vector_impl" }
%"struct.std::_Vector_base<Variable *, std::allocator<Variable *>>::_Vector_impl" = type { %"struct.std::_Vector_base<Variable *, std::allocator<Variable *>>::_Vector_impl_data" }
%"struct.std::_Vector_base<Variable *, std::allocator<Variable *>>::_Vector_impl_data" = type { ptr, ptr, ptr }
%"class.std::__cxx11::basic_string" = type { %"struct.std::__cxx11::basic_string<char>::_Alloc_hider", i64, %union.anon }
%"struct.std::__cxx11::basic_string<char>::_Alloc_hider" = type { ptr }
%union.anon = type { i64, [8 x i8] }
%class.CVQualifiers = type { ptr, i8, i8, %"class.std::vector.16", %"class.std::vector.16" }
%"class.std::vector.16" = type { %"struct.std::_Bvector_base" }
%"struct.std::_Bvector_base" = type { %"struct.std::_Bvector_base<std::allocator<bool>>::_Bvector_impl" }
%"struct.std::_Bvector_base<std::allocator<bool>>::_Bvector_impl" = type { %"struct.std::_Bvector_base<std::allocator<bool>>::_Bvector_impl_data" }
%"struct.std::_Bvector_base<std::allocator<bool>>::_Bvector_impl_data" = type { %"struct.std::_Bit_iterator", %"struct.std::_Bit_iterator", ptr }
%"struct.std::_Bit_iterator" = type { %"struct.std::_Bit_iterator_base.base", [4 x i8] }
%"struct.std::_Bit_iterator_base.base" = type <{ ptr, i32 }>
%class.Type = type { i32, ptr, i32, %"class.std::vector.30", %"class.std::vector.63", i32, i8, i8, i8, i8, i8, %"class.std::vector.68", %"class.std::vector.25" }
%"class.std::vector.30" = type { %"struct.std::_Vector_base.31" }
%"struct.std::_Vector_base.31" = type { %"struct.std::_Vector_base<unsigned int, std::allocator<unsigned int>>::_Vector_impl" }
%"struct.std::_Vector_base<unsigned int, std::allocator<unsigned int>>::_Vector_impl" = type { %"struct.std::_Vector_base<unsigned int, std::allocator<unsigned int>>::_Vector_impl_data" }
%"struct.std::_Vector_base<unsigned int, std::allocator<unsigned int>>::_Vector_impl_data" = type { ptr, ptr, ptr }
%"class.std::vector.63" = type { %"struct.std::_Vector_base.64" }
%"struct.std::_Vector_base.64" = type { %"struct.std::_Vector_base<const Type *, std::allocator<const Type *>>::_Vector_impl" }
%"struct.std::_Vector_base<const Type *, std::allocator<const Type *>>::_Vector_impl" = type { %"struct.std::_Vector_base<const Type *, std::allocator<const Type *>>::_Vector_impl_data" }
%"struct.std::_Vector_base<const Type *, std::allocator<const Type *>>::_Vector_impl_data" = type { ptr, ptr, ptr }
%"class.std::vector.68" = type { %"struct.std::_Vector_base.69" }
%"struct.std::_Vector_base.69" = type { %"struct.std::_Vector_base<CVQualifiers, std::allocator<CVQualifiers>>::_Vector_impl" }
%"struct.std::_Vector_base<CVQualifiers, std::allocator<CVQualifiers>>::_Vector_impl" = type { %"struct.std::_Vector_base<CVQualifiers, std::allocator<CVQualifiers>>::_Vector_impl_data" }
%"struct.std::_Vector_base<CVQualifiers, std::allocator<CVQualifiers>>::_Vector_impl_data" = type { ptr, ptr, ptr }

; Function Attrs: mustprogress nounwind uwtable
define dso_local void @_ZN9CGContext12sanity_checkEv(ptr noundef nonnull align 8 dereferenceable(216) %0) #4 align 2 {
  %2 = alloca ptr, align 8
  store ptr %0, ptr %2, align 8
  ret void
}

; Function Attrs: mustprogress uwtable
define dso_local void @_ZN9CGContext9write_varEPK8Variable(ptr noundef nonnull align 8 dereferenceable(216) %0, ptr noundef %1) #5 align 2 {
  %3 = alloca ptr, align 8
  %4 = alloca ptr, align 8
  store ptr %0, ptr %3, align 8
  store ptr %1, ptr %4, align 8
  %5 = load ptr, ptr %3, align 8
  %6 = load ptr, ptr %4, align 8
  %7 = load ptr, ptr %6, align 8
  %8 = getelementptr inbounds ptr, ptr %7, i64 8
  %9 = load ptr, ptr %8, align 8
  %10 = call noundef ptr %9(ptr noundef nonnull align 8 dereferenceable(200) %6)
  store ptr %10, ptr %4, align 8
  %11 = load ptr, ptr %4, align 8
  %12 = call noundef zeroext i1 @_ZNK9CGContext14is_nonwritableEPK8Variable(ptr noundef nonnull align 8 dereferenceable(216) %5, ptr noundef %11)
  br i1 %12, label %13, label %14

13:                                               ; preds = %2
  br label %14

14:                                               ; preds = %13, %2
  %15 = getelementptr inbounds %class.CGContext, ptr %5, i32 0, i32 10
  %16 = load ptr, ptr %15, align 8
  %17 = icmp ne ptr %16, null
  br i1 %17, label %18, label %22

18:                                               ; preds = %14
  %19 = getelementptr inbounds %class.CGContext, ptr %5, i32 0, i32 10
  %20 = load ptr, ptr %19, align 8
  %21 = load ptr, ptr %4, align 8
  call void @_ZN6Effect9write_varEPK8Variable(ptr noundef nonnull align 8 dereferenceable(74) %20, ptr noundef %21)
  br label %22

22:                                               ; preds = %18, %14
  %23 = getelementptr inbounds %class.CGContext, ptr %5, i32 0, i32 11
  %24 = load ptr, ptr %4, align 8
  call void @_ZN6Effect9write_varEPK8Variable(ptr noundef nonnull align 8 dereferenceable(74) %23, ptr noundef %24)
  call void @_ZN9CGContext12sanity_checkEv(ptr noundef nonnull align 8 dereferenceable(216) %5)
  ret void
}

; Function Attrs: mustprogress nounwind uwtable
define linkonce_odr dso_local noundef zeroext i1 @_ZNK8Variable10is_pointerEv(ptr noundef nonnull align 8 dereferenceable(200) %0) #4 comdat align 2 {
  %2 = alloca ptr, align 8
  store ptr %0, ptr %2, align 8
  %3 = load ptr, ptr %2, align 8
  %4 = getelementptr inbounds %class.Variable, ptr %3, i32 0, i32 3
  %5 = load ptr, ptr %4, align 8
  %6 = icmp ne ptr %5, null
  br i1 %6, label %7, label %13

7:                                                ; preds = %1
  %8 = getelementptr inbounds %class.Variable, ptr %3, i32 0, i32 3
  %9 = load ptr, ptr %8, align 8
  %10 = getelementptr inbounds %class.Type, ptr %9, i32 0, i32 0
  %11 = load i32, ptr %10, align 8
  %12 = icmp eq i32 %11, 1
  br label %13

13:                                               ; preds = %7, %1
  %14 = phi i1 [ false, %1 ], [ %12, %7 ]
  ret i1 %14
}

; Function Attrs: mustprogress nounwind uwtable
define linkonce_odr dso_local noundef zeroext i1 @_ZNK6Effect19is_side_effect_freeEv(ptr noundef nonnull align 8 dereferenceable(74) %0) #4 comdat align 2 {
  %2 = alloca ptr, align 8
  store ptr %0, ptr %2, align 8
  %3 = load ptr, ptr %2, align 8
  %4 = getelementptr inbounds %class.Effect, ptr %3, i32 0, i32 4
  %5 = load i8, ptr %4, align 1
  %6 = trunc i8 %5 to i1
  ret i1 %6
}

; Function Attrs: mustprogress uwtable
define dso_local noundef zeroext i1 @_ZN9CGContext15check_write_varEPK8VariableRKSt6vectorIPK4FactSaIS6_EE(ptr noundef nonnull align 8 dereferenceable(216) %0, ptr noundef %1, ptr noundef nonnull align 8 dereferenceable(24) %2) #5 align 2 {
  %4 = alloca i1, align 1
  %5 = alloca ptr, align 8
  %6 = alloca ptr, align 8
  %7 = alloca ptr, align 8
  store ptr %0, ptr %5, align 8
  store ptr %1, ptr %6, align 8
  store ptr %2, ptr %7, align 8
  %8 = load ptr, ptr %5, align 8
  %9 = load ptr, ptr %6, align 8
  %10 = load ptr, ptr %7, align 8
  %11 = call noundef zeroext i1 @_ZN9CGContext12read_indicesEPK8VariableRKSt6vectorIPK4FactSaIS6_EE(ptr noundef nonnull align 8 dereferenceable(216) %8, ptr noundef %9, ptr noundef nonnull align 8 dereferenceable(24) %10)
  br i1 %11, label %13, label %12

12:                                               ; preds = %3
  store i1 false, ptr %4, align 1
  br label %60

13:                                               ; preds = %3
  %14 = load ptr, ptr %6, align 8
  %15 = load ptr, ptr %14, align 8
  %16 = getelementptr inbounds ptr, ptr %15, i64 8
  %17 = load ptr, ptr %16, align 8
  %18 = call noundef ptr %17(ptr noundef nonnull align 8 dereferenceable(200) %14)
  store ptr %18, ptr %6, align 8
  %19 = load ptr, ptr %6, align 8
  %20 = call noundef zeroext i1 @_ZNK9CGContext14is_nonwritableEPK8Variable(ptr noundef nonnull align 8 dereferenceable(216) %8, ptr noundef %19)
  br i1 %20, label %24, label %21

21:                                               ; preds = %13
  %22 = load ptr, ptr %6, align 8
  %23 = call noundef zeroext i1 @_ZNK8Variable8is_constEv(ptr noundef nonnull align 8 dereferenceable(200) %22)
  br i1 %23, label %24, label %25

24:                                               ; preds = %21, %13
  store i1 false, ptr %4, align 1
  br label %60

25:                                               ; preds = %21
  %26 = getelementptr inbounds %class.CGContext, ptr %8, i32 0, i32 9
  %27 = load ptr, ptr %26, align 8
  %28 = load ptr, ptr %6, align 8
  %29 = call noundef zeroext i1 @_ZNK6Effect20is_written_partiallyEPK8Variable(ptr noundef nonnull align 8 dereferenceable(74) %27, ptr noundef %28)
  br i1 %29, label %30, label %31

30:                                               ; preds = %25
  store i1 false, ptr %4, align 1
  br label %60

31:                                               ; preds = %25
  %32 = getelementptr inbounds %class.CGContext, ptr %8, i32 0, i32 9
  %33 = load ptr, ptr %32, align 8
  %34 = load ptr, ptr %6, align 8
  %35 = call noundef zeroext i1 @_ZNK6Effect17is_read_partiallyEPK8Variable(ptr noundef nonnull align 8 dereferenceable(74) %33, ptr noundef %34)
  br i1 %35, label %36, label %37

36:                                               ; preds = %31
  store i1 false, ptr %4, align 1
  br label %60

37:                                               ; preds = %31
  %38 = load ptr, ptr %6, align 8
  %39 = call noundef zeroext i1 @_ZNK8Variable11is_volatileEv(ptr noundef nonnull align 8 dereferenceable(200) %38)
  br i1 %39, label %40, label %45

40:                                               ; preds = %37
  %41 = getelementptr inbounds %class.CGContext, ptr %8, i32 0, i32 9
  %42 = load ptr, ptr %41, align 8
  %43 = call noundef zeroext i1 @_ZNK6Effect19is_side_effect_freeEv(ptr noundef nonnull align 8 dereferenceable(74) %42)
  br i1 %43, label %45, label %44

44:                                               ; preds = %40
  store i1 false, ptr %4, align 1
  br label %60

45:                                               ; preds = %40, %37
  %46 = getelementptr inbounds %class.CGContext, ptr %8, i32 0, i32 3
  %47 = load i32, ptr %46, align 8
  %48 = and i32 %47, 8
  %49 = icmp ne i32 %48, 0
  br i1 %49, label %50, label %58

50:                                               ; preds = %45
  %51 = load ptr, ptr %6, align 8
  %52 = call noundef zeroext i1 @_ZNK8Variable10is_pointerEv(ptr noundef nonnull align 8 dereferenceable(200) %51)
  br i1 %52, label %53, label %58

53:                                               ; preds = %50
  %54 = load ptr, ptr %6, align 8
  %55 = load ptr, ptr %7, align 8
  %56 = call noundef zeroext i1 @_ZN11FactPointTo15is_dangling_ptrEPK8VariableRKSt6vectorIPK4FactSaIS6_EE(ptr noundef %54, ptr noundef nonnull align 8 dereferenceable(24) %55)
  br i1 %56, label %57, label %58

57:                                               ; preds = %53
  store i1 false, ptr %4, align 1
  br label %60

58:                                               ; preds = %53, %50, %45
  %59 = load ptr, ptr %6, align 8
  call void @_ZN9CGContext9write_varEPK8Variable(ptr noundef nonnull align 8 dereferenceable(216) %8, ptr noundef %59)
  store i1 true, ptr %4, align 1
  br label %60

60:                                               ; preds = %58, %57, %44, %36, %30, %24, %12
  %61 = load i1, ptr %4, align 1
  ret i1 %61
}