; Function Attrs: mustprogress uwtable
define dso_local noundef zeroext i1 @_ZN9CGContext15check_write_varEPK8VariableRKSt6vectorIPK4FactSaIS6_EE(ptr noundef nonnull align 8 dereferenceable(216) %0, ptr noundef %1, ptr noundef nonnull align 8 dereferenceable(24) %2) local_unnamed_addr #4 align 2 {
  %4 = tail call noundef zeroext i1 @_ZN9CGContext12read_indicesEPK8VariableRKSt6vectorIPK4FactSaIS6_EE(ptr noundef nonnull align 8 dereferenceable(216) %0, ptr noundef %1, ptr noundef nonnull align 8 dereferenceable(24) %2)
  br i1 %4, label %5, label %47

5:                                                ; preds = %3
  %6 = load ptr, ptr %1, align 8
  %7 = getelementptr inbounds nuw i8, ptr %6, i64 64
  %8 = load ptr, ptr %7, align 8
  %9 = tail call noundef ptr %8(ptr noundef nonnull align 8 dereferenceable(200) %1)
  %10 = tail call noundef zeroext i1 @_ZNK9CGContext14is_nonwritableEPK8Variable(ptr noundef nonnull align 8 dereferenceable(216) %0, ptr noundef %9)
  br i1 %10, label %47, label %11

11:                                               ; preds = %5
  %12 = tail call noundef zeroext i1 @_ZNK8Variable8is_constEv(ptr noundef nonnull align 8 dereferenceable(200) %9)
  br i1 %12, label %47, label %13

13:                                               ; preds = %11
  %14 = getelementptr inbounds nuw i8, ptr %0, i64 120
  %15 = load ptr, ptr %14, align 8
  %16 = tail call noundef zeroext i1 @_ZNK6Effect20is_written_partiallyEPK8Variable(ptr noundef nonnull align 8 dereferenceable(74) %15, ptr noundef nonnull %9)
  br i1 %16, label %47, label %17

17:                                               ; preds = %13
  %18 = load ptr, ptr %14, align 8
  %19 = tail call noundef zeroext i1 @_ZNK6Effect17is_read_partiallyEPK8Variable(ptr noundef nonnull align 8 dereferenceable(74) %18, ptr noundef nonnull %9)
  br i1 %19, label %47, label %20

20:                                               ; preds = %17
  %21 = tail call noundef zeroext i1 @_ZNK8Variable11is_volatileEv(ptr noundef nonnull align 8 dereferenceable(200) %9)
  br i1 %21, label %22, label %27

22:                                               ; preds = %20
  %23 = load ptr, ptr %14, align 8
  %24 = getelementptr inbounds nuw i8, ptr %23, i64 73
  %25 = load i8, ptr %24, align 1
  %26 = trunc i8 %25 to i1
  br i1 %26, label %27, label %47

27:                                               ; preds = %22, %20
  %28 = getelementptr inbounds nuw i8, ptr %0, i64 16
  %29 = load i32, ptr %28, align 8
  %30 = and i32 %29, 8
  %.not = icmp eq i32 %30, 0
  br i1 %.not, label %_ZNK8Variable10is_pointerEv.exit.thread, label %31

31:                                               ; preds = %27
  %32 = getelementptr inbounds nuw i8, ptr %9, i64 64
  %33 = load ptr, ptr %32, align 8
  %.not.i = icmp eq ptr %33, null
  br i1 %.not.i, label %_ZNK8Variable10is_pointerEv.exit.thread, label %_ZNK8Variable10is_pointerEv.exit

_ZNK8Variable10is_pointerEv.exit:                 ; preds = %31
  %34 = load i32, ptr %33, align 8
  %35 = icmp eq i32 %34, 1
  br i1 %35, label %36, label %_ZNK8Variable10is_pointerEv.exit.thread

36:                                               ; preds = %_ZNK8Variable10is_pointerEv.exit
  %37 = tail call noundef zeroext i1 @_ZN11FactPointTo15is_dangling_ptrEPK8VariableRKSt6vectorIPK4FactSaIS6_EE(ptr noundef nonnull %9, ptr noundef nonnull align 8 dereferenceable(24) %2)
  br i1 %37, label %47, label %_ZNK8Variable10is_pointerEv.exit.thread

_ZNK8Variable10is_pointerEv.exit.thread:          ; preds = %31, %36, %_ZNK8Variable10is_pointerEv.exit, %27
  %38 = load ptr, ptr %9, align 8
  %39 = getelementptr inbounds nuw i8, ptr %38, i64 64
  %40 = load ptr, ptr %39, align 8
  %41 = tail call noundef ptr %40(ptr noundef nonnull align 8 dereferenceable(200) %9)
  %42 = tail call noundef zeroext i1 @_ZNK9CGContext14is_nonwritableEPK8Variable(ptr noundef nonnull align 8 dereferenceable(216) %0, ptr noundef %41)
  %43 = getelementptr inbounds nuw i8, ptr %0, i64 128
  %44 = load ptr, ptr %43, align 8
  %.not.i14 = icmp eq ptr %44, null
  br i1 %.not.i14, label %_ZN9CGContext9write_varEPK8Variable.exit, label %45

45:                                               ; preds = %_ZNK8Variable10is_pointerEv.exit.thread
  tail call void @_ZN6Effect9write_varEPK8Variable(ptr noundef nonnull align 8 dereferenceable(74) %44, ptr noundef %41)
  br label %_ZN9CGContext9write_varEPK8Variable.exit

_ZN9CGContext9write_varEPK8Variable.exit:         ; preds = %_ZNK8Variable10is_pointerEv.exit.thread, %45
  %46 = getelementptr inbounds nuw i8, ptr %0, i64 136
  tail call void @_ZN6Effect9write_varEPK8Variable(ptr noundef nonnull align 8 dereferenceable(74) %46, ptr noundef %41)
  br label %47

47:                                               ; preds = %36, %22, %17, %13, %5, %11, %3, %_ZN9CGContext9write_varEPK8Variable.exit
  %.0 = phi i1 [ true, %_ZN9CGContext9write_varEPK8Variable.exit ], [ false, %3 ], [ false, %11 ], [ false, %5 ], [ false, %13 ], [ false, %17 ], [ false, %22 ], [ false, %36 ]
  ret i1 %.0
}